; ModuleID = 'source-C-CXX/36/242.c'
source_filename = "source-C-CXX/36/242.c"
target datalayout = "e-m:e-p270:32:32-p271:32:32-p272:64:64-i64:64-f80:128-n8:16:32:64-S128"
target triple = "x86_64-pc-linux-gnu"

%struct._IO_FILE = type { i32, i8*, i8*, i8*, i8*, i8*, i8*, i8*, i8*, i8*, i8*, i8*, %struct._IO_marker*, %struct._IO_FILE*, i32, i32, i64, i16, i8, [1 x i8], i8*, i64, %struct._IO_codecvt*, %struct._IO_wide_data*, %struct._IO_FILE*, i8*, i64, i32, [20 x i8] }
%struct._IO_marker = type opaque
%struct._IO_codecvt = type opaque
%struct._IO_wide_data = type opaque

@.str = private unnamed_addr constant [3 x i8] c"%d\00", align 1
@.str.1 = private unnamed_addr constant [4 x i8] c"%c\0A\00", align 1
@stdin = external local_unnamed_addr global %struct._IO_FILE*, align 8
@str = private unnamed_addr constant [3 x i8] c"no\00", align 1

; Function Attrs: nounwind sspstrong uwtable
define dso_local i32 @main() local_unnamed_addr #0 {
  %1 = alloca [26 x i32], align 16
  %2 = bitcast [26 x i32]* %1 to i8*
  %3 = alloca i32, align 4
  %4 = alloca [10001 x i8], align 16
  call void @llvm.lifetime.start.p0i8(i64 104, i8* nonnull %2) #6
  %5 = bitcast i32* %3 to i8*
  call void @llvm.lifetime.start.p0i8(i64 4, i8* nonnull %5) #6
  %6 = getelementptr inbounds [10001 x i8], [10001 x i8]* %4, i64 0, i64 0
  call void @llvm.lifetime.start.p0i8(i64 10001, i8* nonnull %6) #6
  %7 = call i32 (i8*, ...) @__isoc99_scanf(i8* getelementptr inbounds ([3 x i8], [3 x i8]* @.str, i64 0, i64 0), i32* nonnull %3)
  %8 = load %struct._IO_FILE*, %struct._IO_FILE** @stdin, align 8, !tbaa !5
  %9 = call i32 @getc(%struct._IO_FILE* %8) #6
  %10 = load i32, i32* %3, align 4, !tbaa !9
  %11 = icmp sgt i32 %10, 0
  br i1 %11, label %12, label %52

12:                                               ; preds = %0, %48
  %13 = phi i32 [ %49, %48 ], [ 0, %0 ]
  %14 = call i32 (i8*, ...) bitcast (i32 (...)* @gets to i32 (i8*, ...)*)(i8* nonnull %6) #6
  call void @llvm.memset.p0i8.i64(i8* noundef nonnull align 16 dereferenceable(104) %2, i8 0, i64 104, i1 false)
  br label %15

15:                                               ; preds = %12, %28
  %16 = phi i64 [ 0, %12 ], [ %29, %28 ]
  %17 = getelementptr inbounds [10001 x i8], [10001 x i8]* %4, i64 0, i64 %16
  %18 = load i8, i8* %17, align 1, !tbaa !11
  switch i8 %18, label %22 [
    i8 0, label %19
    i8 10, label %28
  ]

19:                                               ; preds = %15
  %20 = load i8, i8* %6, align 16, !tbaa !11
  %21 = icmp eq i8 %20, 0
  br i1 %21, label %46, label %34

22:                                               ; preds = %15
  %23 = sext i8 %18 to i64
  %24 = add nsw i64 %23, -97
  %25 = getelementptr inbounds [26 x i32], [26 x i32]* %1, i64 0, i64 %24
  %26 = load i32, i32* %25, align 4, !tbaa !9
  %27 = add nsw i32 %26, 1
  store i32 %27, i32* %25, align 4, !tbaa !9
  br label %28

28:                                               ; preds = %15, %22
  %29 = add nuw i64 %16, 1
  br label %15, !llvm.loop !12

30:                                               ; preds = %34
  %31 = getelementptr inbounds [10001 x i8], [10001 x i8]* %4, i64 0, i64 %42
  %32 = load i8, i8* %31, align 1, !tbaa !11
  %33 = icmp eq i8 %32, 0
  br i1 %33, label %46, label %34, !llvm.loop !14

34:                                               ; preds = %19, %30
  %35 = phi i64 [ %42, %30 ], [ 0, %19 ]
  %36 = phi i8 [ %32, %30 ], [ %20, %19 ]
  %37 = sext i8 %36 to i64
  %38 = add nsw i64 %37, -97
  %39 = getelementptr inbounds [26 x i32], [26 x i32]* %1, i64 0, i64 %38
  %40 = load i32, i32* %39, align 4, !tbaa !9
  %41 = icmp eq i32 %40, 1
  %42 = add nuw i64 %35, 1
  br i1 %41, label %43, label %30

43:                                               ; preds = %34
  %44 = sext i8 %36 to i32
  %45 = call i32 (i8*, ...) @printf(i8* nonnull dereferenceable(1) getelementptr inbounds ([4 x i8], [4 x i8]* @.str.1, i64 0, i64 0), i32 %44)
  br label %48

46:                                               ; preds = %30, %19
  %47 = call i32 @puts(i8* nonnull dereferenceable(1) getelementptr inbounds ([3 x i8], [3 x i8]* @str, i64 0, i64 0))
  br label %48

48:                                               ; preds = %43, %46
  %49 = add nuw nsw i32 %13, 1
  %50 = load i32, i32* %3, align 4, !tbaa !9
  %51 = icmp slt i32 %49, %50
  br i1 %51, label %12, label %52, !llvm.loop !15

52:                                               ; preds = %48, %0
  %53 = load %struct._IO_FILE*, %struct._IO_FILE** @stdin, align 8, !tbaa !5
  %54 = call i32 @getc(%struct._IO_FILE* %53) #6
  %55 = load %struct._IO_FILE*, %struct._IO_FILE** @stdin, align 8, !tbaa !5
  %56 = call i32 @getc(%struct._IO_FILE* %55) #6
  call void @llvm.lifetime.end.p0i8(i64 10001, i8* nonnull %6) #6
  call void @llvm.lifetime.end.p0i8(i64 4, i8* nonnull %5) #6
  call void @llvm.lifetime.end.p0i8(i64 104, i8* nonnull %2) #6
  ret i32 0
}

; Function Attrs: argmemonly mustprogress nofree nosync nounwind willreturn
declare void @llvm.lifetime.start.p0i8(i64 immarg, i8* nocapture) #1

; Function Attrs: nofree nounwind
declare noundef i32 @__isoc99_scanf(i8* nocapture noundef readonly, ...) local_unnamed_addr #2

declare i32 @gets(...) local_unnamed_addr #3

; Function Attrs: nofree nounwind
declare noundef i32 @printf(i8* nocapture noundef readonly, ...) local_unnamed_addr #2

; Function Attrs: argmemonly mustprogress nofree nosync nounwind willreturn
declare void @llvm.lifetime.end.p0i8(i64 immarg, i8* nocapture) #1

; Function Attrs: nofree nounwind
declare noundef i32 @getc(%struct._IO_FILE* nocapture noundef) local_unnamed_addr #2

; Function Attrs: nofree nounwind
declare noundef i32 @puts(i8* nocapture noundef readonly) local_unnamed_addr #4

; Function Attrs: argmemonly nofree nounwind willreturn writeonly
declare void @llvm.memset.p0i8.i64(i8* nocapture writeonly, i8, i64, i1 immarg) #5


!llvm.module.flags = !{!0, !1, !2, !3}
!llvm.ident = !{!4}

!0 = !{i32 1, !"wchar_size", i32 4}
!1 = !{i32 7, !"PIC Level", i32 2}
!2 = !{i32 7, !"PIE Level", i32 2}
!3 = !{i32 7, !"uwtable", i32 1}
!4 = !{!"clang version 13.0.0"}
!5 = !{!6, !6, i64 0}
!6 = !{!"any pointer", !7, i64 0}
!7 = !{!"omnipotent char", !8, i64 0}
!8 = !{!"Simple C/C++ TBAA"}
!9 = !{!10, !10, i64 0}
!10 = !{!"int", !7, i64 0}
!11 = !{!7, !7, i64 0}
!12 = distinct !{!12, !13}
!13 = !{!"llvm.loop.mustprogress"}
!14 = distinct !{!14, !13}
!15 = distinct !{!15, !13}
